target datalayout = "e-m:e-p270:32:32-p271:32:32-p272:64:64-i64:64-i128:128-f80:128-n8:16:32:64-S128"
target triple = "x86_64-pc-linux-gnu"

%struct.lua_TValue = type { %union.Value, [1 x i32], i32 }
%union.Value = type { ptr }
%union.L_Umaxalign = type { double }
%struct.Buffer = type { i8, i8, i8, i32, %union.anon.5 }
%union.anon.5 = type { %union.L_Umaxalign }

; Function Attrs: mustprogress nounwind uwtable
define internal noundef i32 @_ZL17luauF_readintegerIiEiP9lua_StateP10lua_TValueS3_iS3_i(ptr noundef %0, ptr noundef %1, ptr noundef %2, i32 noundef %3, ptr noundef %4, i32 noundef %5) #0 {
  %7 = alloca i32, align 4
  %8 = alloca ptr, align 8
  %9 = alloca ptr, align 8
  %10 = alloca ptr, align 8
  %11 = alloca i32, align 4
  %12 = alloca ptr, align 8
  %13 = alloca i32, align 4
  %14 = alloca i32, align 4
  %15 = alloca i32, align 4
  %16 = alloca i32, align 4
  %17 = alloca ptr, align 8
  store ptr %0, ptr %8, align 8, !tbaa !4
  store ptr %1, ptr %9, align 8, !tbaa !9
  store ptr %2, ptr %10, align 8, !tbaa !9
  store i32 %3, ptr %11, align 4, !tbaa !11
  store ptr %4, ptr %12, align 8, !tbaa !9
  store i32 %5, ptr %13, align 4, !tbaa !11
  %18 = load i32, ptr %13, align 4, !tbaa !11
  %19 = icmp sge i32 %18, 2
  br i1 %19, label %20, label %66

20:                                               ; preds = %6
  %21 = load i32, ptr %11, align 4, !tbaa !11
  %22 = icmp sle i32 %21, 1
  br i1 %22, label %23, label %66

23:                                               ; preds = %20
  %24 = load ptr, ptr %10, align 8, !tbaa !9
  %25 = getelementptr inbounds nuw %struct.lua_TValue, ptr %24, i32 0, i32 2
  %26 = load i32, ptr %25, align 4, !tbaa !13
  %27 = icmp eq i32 %26, 10
  br i1 %27, label %28, label %66

28:                                               ; preds = %23
  %29 = load ptr, ptr %12, align 8, !tbaa !9
  %30 = getelementptr inbounds nuw %struct.lua_TValue, ptr %29, i32 0, i32 2
  %31 = load i32, ptr %30, align 4, !tbaa !13
  %32 = icmp eq i32 %31, 3
  br i1 %32, label %33, label %66

33:                                               ; preds = %28
  call void @llvm.lifetime.start.p0(i64 4, ptr %14) #17
  %34 = load ptr, ptr %12, align 8, !tbaa !9
  %35 = getelementptr inbounds nuw %struct.lua_TValue, ptr %34, i32 0, i32 0
  %36 = load double, ptr %35, align 8, !tbaa !15
  %37 = fptosi double %36 to i32
  store i32 %37, ptr %14, align 4, !tbaa !11
  %38 = load i32, ptr %14, align 4, !tbaa !11
  %39 = zext i32 %38 to i64
  %40 = add i64 %39, 3
  %41 = load ptr, ptr %10, align 8, !tbaa !9
  %42 = getelementptr inbounds nuw %struct.lua_TValue, ptr %41, i32 0, i32 0
  %43 = load ptr, ptr %42, align 8, !tbaa !15
  %44 = getelementptr inbounds nuw %struct.Buffer, ptr %43, i32 0, i32 3
  %45 = load i32, ptr %44, align 4, !tbaa !83
  %46 = zext i32 %45 to i64
  %47 = icmp uge i64 %40, %46
  br i1 %47, label %48, label %49

48:                                               ; preds = %33
  store i32 -1, ptr %7, align 4
  store i32 1, ptr %15, align 4
  br label %65

49:                                               ; preds = %33
  call void @llvm.lifetime.start.p0(i64 4, ptr %16) #17
  %50 = load ptr, ptr %10, align 8, !tbaa !9
  %51 = getelementptr inbounds nuw %struct.lua_TValue, ptr %50, i32 0, i32 0
  %52 = load ptr, ptr %51, align 8, !tbaa !15
  %53 = getelementptr inbounds nuw %struct.Buffer, ptr %52, i32 0, i32 4
  %54 = getelementptr inbounds [1 x i8], ptr %53, i64 0, i64 0
  %55 = load i32, ptr %14, align 4, !tbaa !11
  %56 = zext i32 %55 to i64
  %57 = getelementptr inbounds nuw i8, ptr %54, i64 %56
  call void @llvm.memcpy.p0.p0.i64(ptr align 4 %16, ptr align 1 %57, i64 4, i1 false)
  call void @llvm.lifetime.start.p0(i64 8, ptr %17) #17
  %58 = load ptr, ptr %9, align 8, !tbaa !9
  store ptr %58, ptr %17, align 8, !tbaa !9
  %59 = load i32, ptr %16, align 4, !tbaa !11
  %60 = sitofp i32 %59 to double
  %61 = load ptr, ptr %17, align 8, !tbaa !9
  %62 = getelementptr inbounds nuw %struct.lua_TValue, ptr %61, i32 0, i32 0
  store double %60, ptr %62, align 8, !tbaa !15
  %63 = load ptr, ptr %17, align 8, !tbaa !9
  %64 = getelementptr inbounds nuw %struct.lua_TValue, ptr %63, i32 0, i32 2
  store i32 3, ptr %64, align 4, !tbaa !13
  call void @llvm.lifetime.end.p0(i64 8, ptr %17) #17
  store i32 1, ptr %7, align 4
  store i32 1, ptr %15, align 4
  call void @llvm.lifetime.end.p0(i64 4, ptr %16) #17
  br label %65

65:                                               ; preds = %49, %48
  call void @llvm.lifetime.end.p0(i64 4, ptr %14) #17
  br label %67

66:                                               ; preds = %28, %23, %20, %6
  store i32 -1, ptr %7, align 4
  br label %67

67:                                               ; preds = %66, %65
  %68 = load i32, ptr %7, align 4
  ret i32 %68
}